target datalayout = "e-m:e-p270:32:32-p271:32:32-p272:64:64-i64:64-i128:128-f80:128-n8:16:32:64-S128"
target triple = "x86_64-pc-linux-gnu"

%struct._zval_struct = type { %union._zend_value, %union.anon, %union.anon.2 }
%union._zend_value = type { i64 }
%union.anon = type { i32 }
%union.anon.2 = type { i32 }
%struct._spl_ptr_llist = type { ptr, ptr, i32 }
%struct._spl_ptr_llist_element = type { ptr, ptr, %struct._zval_struct }

; Function Attrs: nounwind uwtable
define internal void @spl_ptr_llist_shift(ptr noundef %0, ptr noundef %1) #0 {
  %3 = alloca ptr, align 8
  %4 = alloca ptr, align 8
  %5 = alloca ptr, align 8
  %6 = alloca i32, align 4
  %7 = alloca ptr, align 8
  %8 = alloca ptr, align 8
  %9 = alloca ptr, align 8
  %10 = alloca i32, align 4
  store ptr %0, ptr %3, align 8, !tbaa !55
  store ptr %1, ptr %4, align 8, !tbaa !9
  call void @llvm.lifetime.start.p0(i64 8, ptr %5) #14
  %11 = load ptr, ptr %3, align 8, !tbaa !55
  %12 = getelementptr inbounds nuw %struct._spl_ptr_llist, ptr %11, i32 0, i32 0
  %13 = load ptr, ptr %12, align 8, !tbaa !65
  store ptr %13, ptr %5, align 8, !tbaa !56
  %14 = load ptr, ptr %5, align 8, !tbaa !56
  %15 = icmp eq ptr %14, null
  br i1 %15, label %16, label %22

16:                                               ; preds = %2
  br label %17

17:                                               ; preds = %16
  %18 = load ptr, ptr %4, align 8, !tbaa !9
  %19 = getelementptr inbounds nuw %struct._zval_struct, ptr %18, i32 0, i32 1
  store i32 0, ptr %19, align 8, !tbaa !11
  br label %20

20:                                               ; preds = %17
  br label %21

21:                                               ; preds = %20
  store i32 1, ptr %6, align 4
  br label %83

22:                                               ; preds = %2
  %23 = load ptr, ptr %5, align 8, !tbaa !56
  %24 = getelementptr inbounds nuw %struct._spl_ptr_llist_element, ptr %23, i32 0, i32 1
  %25 = load ptr, ptr %24, align 8, !tbaa !61
  %26 = icmp ne ptr %25, null
  br i1 %26, label %27, label %32

27:                                               ; preds = %22
  %28 = load ptr, ptr %5, align 8, !tbaa !56
  %29 = getelementptr inbounds nuw %struct._spl_ptr_llist_element, ptr %28, i32 0, i32 1
  %30 = load ptr, ptr %29, align 8, !tbaa !61
  %31 = getelementptr inbounds nuw %struct._spl_ptr_llist_element, ptr %30, i32 0, i32 0
  store ptr null, ptr %31, align 8, !tbaa !59
  br label %35

32:                                               ; preds = %22
  %33 = load ptr, ptr %3, align 8, !tbaa !55
  %34 = getelementptr inbounds nuw %struct._spl_ptr_llist, ptr %33, i32 0, i32 1
  store ptr null, ptr %34, align 8, !tbaa !57
  br label %35

35:                                               ; preds = %32, %27
  %36 = load ptr, ptr %5, align 8, !tbaa !56
  %37 = getelementptr inbounds nuw %struct._spl_ptr_llist_element, ptr %36, i32 0, i32 1
  %38 = load ptr, ptr %37, align 8, !tbaa !61
  %39 = load ptr, ptr %3, align 8, !tbaa !55
  %40 = getelementptr inbounds nuw %struct._spl_ptr_llist, ptr %39, i32 0, i32 0
  store ptr %38, ptr %40, align 8, !tbaa !65
  %41 = load ptr, ptr %3, align 8, !tbaa !55
  %42 = getelementptr inbounds nuw %struct._spl_ptr_llist, ptr %41, i32 0, i32 2
  %43 = load i32, ptr %42, align 8, !tbaa !66
  %44 = add nsw i32 %43, -1
  store i32 %44, ptr %42, align 8, !tbaa !66
  br label %45

45:                                               ; preds = %35
  call void @llvm.lifetime.start.p0(i64 8, ptr %7) #14
  %46 = load ptr, ptr %4, align 8, !tbaa !9
  store ptr %46, ptr %7, align 8, !tbaa !9
  call void @llvm.lifetime.start.p0(i64 8, ptr %8) #14
  %47 = load ptr, ptr %5, align 8, !tbaa !56
  %48 = getelementptr inbounds nuw %struct._spl_ptr_llist_element, ptr %47, i32 0, i32 2
  store ptr %48, ptr %8, align 8, !tbaa !9
  call void @llvm.lifetime.start.p0(i64 8, ptr %9) #14
  %49 = load ptr, ptr %8, align 8, !tbaa !9
  %50 = getelementptr inbounds nuw %struct._zval_struct, ptr %49, i32 0, i32 0
  %51 = load ptr, ptr %50, align 8, !tbaa !11
  store ptr %51, ptr %9, align 8, !tbaa !62
  call void @llvm.lifetime.start.p0(i64 4, ptr %10) #14
  %52 = load ptr, ptr %8, align 8, !tbaa !9
  %53 = getelementptr inbounds nuw %struct._zval_struct, ptr %52, i32 0, i32 1
  %54 = load i32, ptr %53, align 8, !tbaa !11
  store i32 %54, ptr %10, align 4, !tbaa !64
  br label %55

55:                                               ; preds = %45
  %56 = load ptr, ptr %9, align 8, !tbaa !62
  %57 = load ptr, ptr %7, align 8, !tbaa !9
  %58 = getelementptr inbounds nuw %struct._zval_struct, ptr %57, i32 0, i32 0
  store ptr %56, ptr %58, align 8, !tbaa !11
  %59 = load i32, ptr %10, align 4, !tbaa !64
  %60 = load ptr, ptr %7, align 8, !tbaa !9
  %61 = getelementptr inbounds nuw %struct._zval_struct, ptr %60, i32 0, i32 1
  store i32 %59, ptr %61, align 8, !tbaa !11
  br label %62

62:                                               ; preds = %55
  br label %63

63:                                               ; preds = %62
  call void @llvm.lifetime.end.p0(i64 4, ptr %10) #14
  call void @llvm.lifetime.end.p0(i64 8, ptr %9) #14
  call void @llvm.lifetime.end.p0(i64 8, ptr %8) #14
  call void @llvm.lifetime.end.p0(i64 8, ptr %7) #14
  br label %64

64:                                               ; preds = %63
  br label %65

65:                                               ; preds = %64
  br label %66

66:                                               ; preds = %65
  %67 = load ptr, ptr %5, align 8, !tbaa !56
  %68 = getelementptr inbounds nuw %struct._spl_ptr_llist_element, ptr %67, i32 0, i32 2
  %69 = getelementptr inbounds nuw %struct._zval_struct, ptr %68, i32 0, i32 1
  store i32 0, ptr %69, align 8, !tbaa !11
  br label %70

70:                                               ; preds = %66
  br label %71

71:                                               ; preds = %70
  %72 = load ptr, ptr %5, align 8, !tbaa !56
  %73 = getelementptr inbounds nuw %struct._spl_ptr_llist_element, ptr %72, i32 0, i32 1
  store ptr null, ptr %73, align 8, !tbaa !61
  %74 = load ptr, ptr %5, align 8, !tbaa !56
  %75 = getelementptr inbounds nuw %struct._spl_ptr_llist_element, ptr %74, i32 0, i32 2
  %76 = getelementptr inbounds nuw %struct._zval_struct, ptr %75, i32 0, i32 2
  %77 = load i32, ptr %76, align 4, !tbaa !11
  %78 = add i32 %77, -1
  store i32 %78, ptr %76, align 4, !tbaa !11
  %79 = icmp ne i32 %78, 0
  br i1 %79, label %82, label %80

80:                                               ; preds = %71
  %81 = load ptr, ptr %5, align 8, !tbaa !56
  call void @_efree(ptr noundef %81)
  br label %82

82:                                               ; preds = %80, %71
  store i32 0, ptr %6, align 4
  br label %83

83:                                               ; preds = %82, %21
  call void @llvm.lifetime.end.p0(i64 8, ptr %5) #14
  %84 = load i32, ptr %6, align 4
  switch i32 %84, label %86 [
    i32 0, label %85
    i32 1, label %85
  ]

85:                                               ; preds = %83, %83
  ret void

86:                                               ; preds = %83
  unreachable
}

; Function Attrs: nounwind uwtable
define internal void @spl_ptr_llist_pop(ptr noundef %0, ptr noundef %1) #0 {
  %3 = alloca ptr, align 8
  %4 = alloca ptr, align 8
  %5 = alloca ptr, align 8
  %6 = alloca i32, align 4
  %7 = alloca ptr, align 8
  %8 = alloca ptr, align 8
  %9 = alloca ptr, align 8
  %10 = alloca i32, align 4
  store ptr %0, ptr %3, align 8, !tbaa !55
  store ptr %1, ptr %4, align 8, !tbaa !9
  call void @llvm.lifetime.start.p0(i64 8, ptr %5) #14
  %11 = load ptr, ptr %3, align 8, !tbaa !55
  %12 = getelementptr inbounds nuw %struct._spl_ptr_llist, ptr %11, i32 0, i32 1
  %13 = load ptr, ptr %12, align 8, !tbaa !57
  store ptr %13, ptr %5, align 8, !tbaa !56
  %14 = load ptr, ptr %5, align 8, !tbaa !56
  %15 = icmp eq ptr %14, null
  br i1 %15, label %16, label %22

16:                                               ; preds = %2
  br label %17

17:                                               ; preds = %16
  %18 = load ptr, ptr %4, align 8, !tbaa !9
  %19 = getelementptr inbounds nuw %struct._zval_struct, ptr %18, i32 0, i32 1
  store i32 0, ptr %19, align 8, !tbaa !11
  br label %20

20:                                               ; preds = %17
  br label %21

21:                                               ; preds = %20
  store i32 1, ptr %6, align 4
  br label %83

22:                                               ; preds = %2
  %23 = load ptr, ptr %5, align 8, !tbaa !56
  %24 = getelementptr inbounds nuw %struct._spl_ptr_llist_element, ptr %23, i32 0, i32 0
  %25 = load ptr, ptr %24, align 8, !tbaa !59
  %26 = icmp ne ptr %25, null
  br i1 %26, label %27, label %32

27:                                               ; preds = %22
  %28 = load ptr, ptr %5, align 8, !tbaa !56
  %29 = getelementptr inbounds nuw %struct._spl_ptr_llist_element, ptr %28, i32 0, i32 0
  %30 = load ptr, ptr %29, align 8, !tbaa !59
  %31 = getelementptr inbounds nuw %struct._spl_ptr_llist_element, ptr %30, i32 0, i32 1
  store ptr null, ptr %31, align 8, !tbaa !61
  br label %35

32:                                               ; preds = %22
  %33 = load ptr, ptr %3, align 8, !tbaa !55
  %34 = getelementptr inbounds nuw %struct._spl_ptr_llist, ptr %33, i32 0, i32 0
  store ptr null, ptr %34, align 8, !tbaa !65
  br label %35

35:                                               ; preds = %32, %27
  %36 = load ptr, ptr %5, align 8, !tbaa !56
  %37 = getelementptr inbounds nuw %struct._spl_ptr_llist_element, ptr %36, i32 0, i32 0
  %38 = load ptr, ptr %37, align 8, !tbaa !59
  %39 = load ptr, ptr %3, align 8, !tbaa !55
  %40 = getelementptr inbounds nuw %struct._spl_ptr_llist, ptr %39, i32 0, i32 1
  store ptr %38, ptr %40, align 8, !tbaa !57
  %41 = load ptr, ptr %3, align 8, !tbaa !55
  %42 = getelementptr inbounds nuw %struct._spl_ptr_llist, ptr %41, i32 0, i32 2
  %43 = load i32, ptr %42, align 8, !tbaa !66
  %44 = add nsw i32 %43, -1
  store i32 %44, ptr %42, align 8, !tbaa !66
  br label %45

45:                                               ; preds = %35
  call void @llvm.lifetime.start.p0(i64 8, ptr %7) #14
  %46 = load ptr, ptr %4, align 8, !tbaa !9
  store ptr %46, ptr %7, align 8, !tbaa !9
  call void @llvm.lifetime.start.p0(i64 8, ptr %8) #14
  %47 = load ptr, ptr %5, align 8, !tbaa !56
  %48 = getelementptr inbounds nuw %struct._spl_ptr_llist_element, ptr %47, i32 0, i32 2
  store ptr %48, ptr %8, align 8, !tbaa !9
  call void @llvm.lifetime.start.p0(i64 8, ptr %9) #14
  %49 = load ptr, ptr %8, align 8, !tbaa !9
  %50 = getelementptr inbounds nuw %struct._zval_struct, ptr %49, i32 0, i32 0
  %51 = load ptr, ptr %50, align 8, !tbaa !11
  store ptr %51, ptr %9, align 8, !tbaa !62
  call void @llvm.lifetime.start.p0(i64 4, ptr %10) #14
  %52 = load ptr, ptr %8, align 8, !tbaa !9
  %53 = getelementptr inbounds nuw %struct._zval_struct, ptr %52, i32 0, i32 1
  %54 = load i32, ptr %53, align 8, !tbaa !11
  store i32 %54, ptr %10, align 4, !tbaa !64
  br label %55

55:                                               ; preds = %45
  %56 = load ptr, ptr %9, align 8, !tbaa !62
  %57 = load ptr, ptr %7, align 8, !tbaa !9
  %58 = getelementptr inbounds nuw %struct._zval_struct, ptr %57, i32 0, i32 0
  store ptr %56, ptr %58, align 8, !tbaa !11
  %59 = load i32, ptr %10, align 4, !tbaa !64
  %60 = load ptr, ptr %7, align 8, !tbaa !9
  %61 = getelementptr inbounds nuw %struct._zval_struct, ptr %60, i32 0, i32 1
  store i32 %59, ptr %61, align 8, !tbaa !11
  br label %62

62:                                               ; preds = %55
  br label %63

63:                                               ; preds = %62
  call void @llvm.lifetime.end.p0(i64 4, ptr %10) #14
  call void @llvm.lifetime.end.p0(i64 8, ptr %9) #14
  call void @llvm.lifetime.end.p0(i64 8, ptr %8) #14
  call void @llvm.lifetime.end.p0(i64 8, ptr %7) #14
  br label %64

64:                                               ; preds = %63
  br label %65

65:                                               ; preds = %64
  br label %66

66:                                               ; preds = %65
  %67 = load ptr, ptr %5, align 8, !tbaa !56
  %68 = getelementptr inbounds nuw %struct._spl_ptr_llist_element, ptr %67, i32 0, i32 2
  %69 = getelementptr inbounds nuw %struct._zval_struct, ptr %68, i32 0, i32 1
  store i32 0, ptr %69, align 8, !tbaa !11
  br label %70

70:                                               ; preds = %66
  br label %71

71:                                               ; preds = %70
  %72 = load ptr, ptr %5, align 8, !tbaa !56
  %73 = getelementptr inbounds nuw %struct._spl_ptr_llist_element, ptr %72, i32 0, i32 0
  store ptr null, ptr %73, align 8, !tbaa !59
  %74 = load ptr, ptr %5, align 8, !tbaa !56
  %75 = getelementptr inbounds nuw %struct._spl_ptr_llist_element, ptr %74, i32 0, i32 2
  %76 = getelementptr inbounds nuw %struct._zval_struct, ptr %75, i32 0, i32 2
  %77 = load i32, ptr %76, align 4, !tbaa !11
  %78 = add i32 %77, -1
  store i32 %78, ptr %76, align 4, !tbaa !11
  %79 = icmp ne i32 %78, 0
  br i1 %79, label %82, label %80

80:                                               ; preds = %71
  %81 = load ptr, ptr %5, align 8, !tbaa !56
  call void @_efree(ptr noundef %81)
  br label %82

82:                                               ; preds = %80, %71
  store i32 0, ptr %6, align 4
  br label %83

83:                                               ; preds = %82, %21
  call void @llvm.lifetime.end.p0(i64 8, ptr %5) #14
  %84 = load i32, ptr %6, align 4
  switch i32 %84, label %86 [
    i32 0, label %85
    i32 1, label %85
  ]

85:                                               ; preds = %83, %83
  ret void

86:                                               ; preds = %83
  unreachable
}

; Function Attrs: nounwind uwtable
define internal void @spl_dllist_it_helper_move_forward(ptr noundef %0, ptr noundef %1, ptr noundef %2, i32 noundef %3) #0 {
  %5 = alloca ptr, align 8
  %6 = alloca ptr, align 8
  %7 = alloca ptr, align 8
  %8 = alloca i32, align 4
  %9 = alloca ptr, align 8
  %10 = alloca %struct._zval_struct, align 8
  %11 = alloca %struct._zval_struct, align 8
  store ptr %0, ptr %5, align 8, !tbaa !82
  store ptr %1, ptr %6, align 8, !tbaa !84
  store ptr %2, ptr %7, align 8, !tbaa !55
  store i32 %3, ptr %8, align 4, !tbaa !64
  %12 = load ptr, ptr %5, align 8, !tbaa !82
  %13 = load ptr, ptr %12, align 8, !tbaa !56
  %14 = icmp ne ptr %13, null
  br i1 %14, label %15, label %71

15:                                               ; preds = %4
  call void @llvm.lifetime.start.p0(i64 8, ptr %9) #14
  %16 = load ptr, ptr %5, align 8, !tbaa !82
  %17 = load ptr, ptr %16, align 8, !tbaa !56
  store ptr %17, ptr %9, align 8, !tbaa !56
  %18 = load i32, ptr %8, align 4, !tbaa !64
  %19 = and i32 %18, 2
  %20 = icmp ne i32 %19, 0
  br i1 %20, label %21, label %35

21:                                               ; preds = %15
  %22 = load ptr, ptr %9, align 8, !tbaa !56
  %23 = getelementptr inbounds nuw %struct._spl_ptr_llist_element, ptr %22, i32 0, i32 0
  %24 = load ptr, ptr %23, align 8, !tbaa !59
  %25 = load ptr, ptr %5, align 8, !tbaa !82
  store ptr %24, ptr %25, align 8, !tbaa !56
  %26 = load ptr, ptr %6, align 8, !tbaa !84
  %27 = load i32, ptr %26, align 4, !tbaa !64
  %28 = add nsw i32 %27, -1
  store i32 %28, ptr %26, align 4, !tbaa !64
  %29 = load i32, ptr %8, align 4, !tbaa !64
  %30 = and i32 %29, 1
  %31 = icmp ne i32 %30, 0
  br i1 %31, label %32, label %34

32:                                               ; preds = %21
  call void @llvm.lifetime.start.p0(i64 16, ptr %10) #14
  %33 = load ptr, ptr %7, align 8, !tbaa !55
  call void @spl_ptr_llist_pop(ptr noundef %33, ptr noundef %10)
  call void @zval_ptr_dtor(ptr noundef %10)
  call void @llvm.lifetime.end.p0(i64 16, ptr %10) #14
  br label %34

34:                                               ; preds = %32, %21
  br label %50

35:                                               ; preds = %15
  %36 = load ptr, ptr %9, align 8, !tbaa !56
  %37 = getelementptr inbounds nuw %struct._spl_ptr_llist_element, ptr %36, i32 0, i32 1
  %38 = load ptr, ptr %37, align 8, !tbaa !61
  %39 = load ptr, ptr %5, align 8, !tbaa !82
  store ptr %38, ptr %39, align 8, !tbaa !56
  %40 = load i32, ptr %8, align 4, !tbaa !64
  %41 = and i32 %40, 1
  %42 = icmp ne i32 %41, 0
  br i1 %42, label %43, label %45

43:                                               ; preds = %35
  call void @llvm.lifetime.start.p0(i64 16, ptr %11) #14
  %44 = load ptr, ptr %7, align 8, !tbaa !55
  call void @spl_ptr_llist_shift(ptr noundef %44, ptr noundef %11)
  call void @zval_ptr_dtor(ptr noundef %11)
  call void @llvm.lifetime.end.p0(i64 16, ptr %11) #14
  br label %49

45:                                               ; preds = %35
  %46 = load ptr, ptr %6, align 8, !tbaa !84
  %47 = load i32, ptr %46, align 4, !tbaa !64
  %48 = add nsw i32 %47, 1
  store i32 %48, ptr %46, align 4, !tbaa !64
  br label %49

49:                                               ; preds = %45, %43
  br label %50

50:                                               ; preds = %49, %34
  %51 = load ptr, ptr %9, align 8, !tbaa !56
  %52 = getelementptr inbounds nuw %struct._spl_ptr_llist_element, ptr %51, i32 0, i32 2
  %53 = getelementptr inbounds nuw %struct._zval_struct, ptr %52, i32 0, i32 2
  %54 = load i32, ptr %53, align 4, !tbaa !11
  %55 = add i32 %54, -1
  store i32 %55, ptr %53, align 4, !tbaa !11
  %56 = icmp ne i32 %55, 0
  br i1 %56, label %59, label %57

57:                                               ; preds = %50
  %58 = load ptr, ptr %9, align 8, !tbaa !56
  call void @_efree(ptr noundef %58)
  br label %59

59:                                               ; preds = %57, %50
  %60 = load ptr, ptr %5, align 8, !tbaa !82
  %61 = load ptr, ptr %60, align 8, !tbaa !56
  %62 = icmp ne ptr %61, null
  br i1 %62, label %63, label %70

63:                                               ; preds = %59
  %64 = load ptr, ptr %5, align 8, !tbaa !82
  %65 = load ptr, ptr %64, align 8, !tbaa !56
  %66 = getelementptr inbounds nuw %struct._spl_ptr_llist_element, ptr %65, i32 0, i32 2
  %67 = getelementptr inbounds nuw %struct._zval_struct, ptr %66, i32 0, i32 2
  %68 = load i32, ptr %67, align 4, !tbaa !11
  %69 = add i32 %68, 1
  store i32 %69, ptr %67, align 4, !tbaa !11
  br label %70

70:                                               ; preds = %63, %59
  call void @llvm.lifetime.end.p0(i64 8, ptr %9) #14
  br label %71

71:                                               ; preds = %70, %4
  ret void
}