; Function Attrs: nounwind uwtable
define internal fastcc void @spl_dllist_it_helper_move_forward(ptr noundef captures(none) %0, ptr noundef captures(none) %1, ptr noundef captures(none) %2, i32 noundef %3) unnamed_addr #0 {
  %5 = alloca %struct._zval_struct, align 8
  %6 = alloca %struct._zval_struct, align 8
  %7 = load ptr, ptr %0, align 8, !tbaa !67
  %.not = icmp eq ptr %7, null
  br i1 %.not, label %81, label %8

8:                                                ; preds = %4
  %9 = and i32 %3, 2
  %.not17 = icmp eq i32 %9, 0
  br i1 %.not17, label %39, label %10

10:                                               ; preds = %8
  %11 = load ptr, ptr %7, align 8, !tbaa !53
  store ptr %11, ptr %0, align 8, !tbaa !67
  %12 = load i32, ptr %1, align 4, !tbaa !73
  %13 = add nsw i32 %12, -1
  store i32 %13, ptr %1, align 4, !tbaa !73
  %14 = and i32 %3, 1
  %.not19 = icmp eq i32 %14, 0
  br i1 %.not19, label %70, label %15

15:                                               ; preds = %10
  call void @llvm.lifetime.start.p0(i64 16, ptr nonnull %5) #13
  %16 = getelementptr inbounds nuw i8, ptr %2, i64 8
  %17 = load ptr, ptr %16, align 8, !tbaa !51
  %18 = icmp eq ptr %17, null
  br i1 %18, label %19, label %21

19:                                               ; preds = %15
  %20 = getelementptr inbounds nuw i8, ptr %5, i64 8
  store i32 0, ptr %20, align 8, !tbaa !4
  br label %spl_ptr_llist_pop.exit

21:                                               ; preds = %15
  %22 = load ptr, ptr %17, align 8, !tbaa !53
  %.not.i = icmp eq ptr %22, null
  br i1 %.not.i, label %25, label %23

23:                                               ; preds = %21
  %24 = getelementptr inbounds nuw i8, ptr %22, i64 8
  store ptr null, ptr %24, align 8, !tbaa !55
  br label %26

25:                                               ; preds = %21
  store ptr null, ptr %2, align 8, !tbaa !57
  br label %26

26:                                               ; preds = %25, %23
  store ptr %22, ptr %16, align 8, !tbaa !51
  %27 = getelementptr inbounds nuw i8, ptr %2, i64 16
  %28 = load i32, ptr %27, align 8, !tbaa !58
  %29 = add nsw i32 %28, -1
  store i32 %29, ptr %27, align 8, !tbaa !58
  %30 = getelementptr inbounds nuw i8, ptr %17, i64 16
  %31 = load ptr, ptr %30, align 8, !tbaa !4
  %32 = getelementptr inbounds nuw i8, ptr %17, i64 24
  %33 = load i32, ptr %32, align 8, !tbaa !4
  store ptr %31, ptr %5, align 8, !tbaa !4
  %34 = getelementptr inbounds nuw i8, ptr %5, i64 8
  store i32 %33, ptr %34, align 8, !tbaa !4
  store i32 0, ptr %32, align 8, !tbaa !4
  store ptr null, ptr %17, align 8, !tbaa !53
  %35 = getelementptr inbounds nuw i8, ptr %17, i64 28
  %36 = load i32, ptr %35, align 4, !tbaa !4
  %37 = add i32 %36, -1
  store i32 %37, ptr %35, align 4, !tbaa !4
  %.not21.i = icmp eq i32 %37, 0
  br i1 %.not21.i, label %38, label %spl_ptr_llist_pop.exit

38:                                               ; preds = %26
  tail call void @_efree(ptr noundef nonnull %17) #13
  br label %spl_ptr_llist_pop.exit

spl_ptr_llist_pop.exit:                           ; preds = %19, %26, %38
  call void @zval_ptr_dtor(ptr noundef nonnull %5) #13
  call void @llvm.lifetime.end.p0(i64 16, ptr nonnull %5) #13
  br label %70

39:                                               ; preds = %8
  %40 = getelementptr inbounds nuw i8, ptr %7, i64 8
  %41 = load ptr, ptr %40, align 8, !tbaa !55
  store ptr %41, ptr %0, align 8, !tbaa !67
  %42 = and i32 %3, 1
  %.not18 = icmp eq i32 %42, 0
  br i1 %.not18, label %67, label %43

43:                                               ; preds = %39
  call void @llvm.lifetime.start.p0(i64 16, ptr nonnull %6) #13
  %44 = load ptr, ptr %2, align 8, !tbaa !57
  %45 = icmp eq ptr %44, null
  br i1 %45, label %46, label %48

46:                                               ; preds = %43
  %47 = getelementptr inbounds nuw i8, ptr %6, i64 8
  store i32 0, ptr %47, align 8, !tbaa !4
  br label %spl_ptr_llist_shift.exit

48:                                               ; preds = %43
  %49 = getelementptr inbounds nuw i8, ptr %44, i64 8
  %50 = load ptr, ptr %49, align 8, !tbaa !55
  %.not.i22 = icmp eq ptr %50, null
  br i1 %.not.i22, label %52, label %51

51:                                               ; preds = %48
  store ptr null, ptr %50, align 8, !tbaa !53
  br label %54

52:                                               ; preds = %48
  %53 = getelementptr inbounds nuw i8, ptr %2, i64 8
  store ptr null, ptr %53, align 8, !tbaa !51
  br label %54

54:                                               ; preds = %52, %51
  store ptr %50, ptr %2, align 8, !tbaa !57
  %55 = getelementptr inbounds nuw i8, ptr %2, i64 16
  %56 = load i32, ptr %55, align 8, !tbaa !58
  %57 = add nsw i32 %56, -1
  store i32 %57, ptr %55, align 8, !tbaa !58
  %58 = getelementptr inbounds nuw i8, ptr %44, i64 16
  %59 = load ptr, ptr %58, align 8, !tbaa !4
  %60 = getelementptr inbounds nuw i8, ptr %44, i64 24
  %61 = load i32, ptr %60, align 8, !tbaa !4
  store ptr %59, ptr %6, align 8, !tbaa !4
  %62 = getelementptr inbounds nuw i8, ptr %6, i64 8
  store i32 %61, ptr %62, align 8, !tbaa !4
  store i32 0, ptr %60, align 8, !tbaa !4
  store ptr null, ptr %49, align 8, !tbaa !55
  %63 = getelementptr inbounds nuw i8, ptr %44, i64 28
  %64 = load i32, ptr %63, align 4, !tbaa !4
  %65 = add i32 %64, -1
  store i32 %65, ptr %63, align 4, !tbaa !4
  %.not21.i23 = icmp eq i32 %65, 0
  br i1 %.not21.i23, label %66, label %spl_ptr_llist_shift.exit

66:                                               ; preds = %54
  tail call void @_efree(ptr noundef nonnull %44) #13
  br label %spl_ptr_llist_shift.exit

spl_ptr_llist_shift.exit:                         ; preds = %46, %54, %66
  call void @zval_ptr_dtor(ptr noundef nonnull %6) #13
  call void @llvm.lifetime.end.p0(i64 16, ptr nonnull %6) #13
  br label %70

67:                                               ; preds = %39
  %68 = load i32, ptr %1, align 4, !tbaa !73
  %69 = add nsw i32 %68, 1
  store i32 %69, ptr %1, align 4, !tbaa !73
  br label %70

70:                                               ; preds = %spl_ptr_llist_shift.exit, %67, %10, %spl_ptr_llist_pop.exit
  %71 = getelementptr inbounds nuw i8, ptr %7, i64 28
  %72 = load i32, ptr %71, align 4, !tbaa !4
  %73 = add i32 %72, -1
  store i32 %73, ptr %71, align 4, !tbaa !4
  %.not20 = icmp eq i32 %73, 0
  br i1 %.not20, label %74, label %75

74:                                               ; preds = %70
  call void @_efree(ptr noundef nonnull %7) #13
  br label %75

75:                                               ; preds = %74, %70
  %76 = load ptr, ptr %0, align 8, !tbaa !67
  %.not21 = icmp eq ptr %76, null
  br i1 %.not21, label %81, label %77

77:                                               ; preds = %75
  %78 = getelementptr inbounds nuw i8, ptr %76, i64 28
  %79 = load i32, ptr %78, align 4, !tbaa !4
  %80 = add i32 %79, 1
  store i32 %80, ptr %78, align 4, !tbaa !4
  br label %81

81:                                               ; preds = %75, %77, %4
  ret void
}